target datalayout = "e-m:e-p270:32:32-p271:32:32-p272:64:64-i64:64-i128:128-f80:128-n8:16:32:64-S128"
target triple = "x86_64-pc-linux-gnu"

%"class.std::ios_base" = type { ptr, i64, i64, i32, i32, i32, ptr, %"struct.std::ios_base::_Words", [8 x %"struct.std::ios_base::_Words"], i32, ptr, %"class.std::locale" }
%"struct.std::ios_base::_Words" = type { ptr, i64 }
%"class.std::locale" = type { ptr }
%"class.std::__shared_count" = type { ptr }
%"struct.cv::Ptr.219" = type { %"class.std::shared_ptr.220" }
%"class.std::shared_ptr.220" = type { %"class.std::__shared_ptr.221" }
%"class.std::__shared_ptr.221" = type { ptr, %"class.std::__shared_count" }
%"struct.cv::Ptr.223" = type { %"class.std::shared_ptr.224" }
%"class.std::shared_ptr.224" = type { %"class.std::__shared_ptr.225" }
%"class.std::__shared_ptr.225" = type { ptr, %"class.std::__shared_count" }

; Function Attrs: inlinehint mustprogress nounwind uwtable
define linkonce_odr dso_local noundef i32 @_ZStorSt12_Ios_IostateS_(i32 noundef %0, i32 noundef %1) #9 comdat {
  %3 = alloca i32, align 4
  %4 = alloca i32, align 4
  store i32 %0, ptr %3, align 4, !tbaa !503
  store i32 %1, ptr %4, align 4, !tbaa !503
  %5 = load i32, ptr %3, align 4, !tbaa !503
  %6 = load i32, ptr %4, align 4, !tbaa !503
  %7 = or i32 %5, %6
  ret i32 %7
}

; Function Attrs: mustprogress nounwind uwtable
define available_externally noundef i32 @_ZNKSt9basic_iosIcSt11char_traitsIcEE7rdstateEv(ptr noundef nonnull align 8 dereferenceable(264) %0) #4 align 2 {
  %2 = alloca ptr, align 8
  store ptr %0, ptr %2, align 8, !tbaa !501
  %3 = load ptr, ptr %2, align 8
  %4 = getelementptr inbounds nuw %"class.std::ios_base", ptr %3, i32 0, i32 5
  %5 = load i32, ptr %4, align 8, !tbaa !505
  ret i32 %5
}

; Function Attrs: mustprogress nounwind uwtable
define linkonce_odr hidden noundef i64 @_ZNSt11char_traitsIcE6lengthEPKc(ptr noundef %0) #4 comdat align 2 {
  %2 = alloca ptr, align 8
  store ptr %0, ptr %2, align 8, !tbaa !16
  %3 = load ptr, ptr %2, align 8, !tbaa !16
  %4 = call i64 @strlen(ptr noundef %3) #3
  ret i64 %4
}

; Function Attrs: mustprogress uwtable
define available_externally void @_ZNSt9basic_iosIcSt11char_traitsIcEE8setstateESt12_Ios_Iostate(ptr noundef nonnull align 8 dereferenceable(264) %0, i32 noundef %1) #6 align 2 {
  %3 = alloca ptr, align 8
  %4 = alloca i32, align 4
  store ptr %0, ptr %3, align 8, !tbaa !501
  store i32 %1, ptr %4, align 4, !tbaa !503
  %5 = load ptr, ptr %3, align 8
  %6 = call noundef i32 @_ZNKSt9basic_iosIcSt11char_traitsIcEE7rdstateEv(ptr noundef nonnull align 8 dereferenceable(264) %5)
  %7 = load i32, ptr %4, align 4, !tbaa !503
  %8 = call noundef i32 @_ZStorSt12_Ios_IostateS_(i32 noundef %6, i32 noundef %7)
  call void @_ZNSt9basic_iosIcSt11char_traitsIcEE5clearESt12_Ios_Iostate(ptr noundef nonnull align 8 dereferenceable(264) %5, i32 noundef %8)
  ret void
}

; Function Attrs: mustprogress nounwind uwtable
define linkonce_odr hidden noundef ptr @_ZNKSt12__shared_ptrIN2cv9FormattedELN9__gnu_cxx12_Lock_policyE2EE3getEv(ptr noundef nonnull align 8 dereferenceable(16) %0) #4 comdat align 2 {
  %2 = alloca ptr, align 8
  store ptr %0, ptr %2, align 8, !tbaa !462
  %3 = load ptr, ptr %2, align 8
  %4 = getelementptr inbounds nuw %"class.std::__shared_ptr.221", ptr %3, i32 0, i32 0
  %5 = load ptr, ptr %4, align 8, !tbaa !466
  ret ptr %5
}

; Function Attrs: inlinehint mustprogress uwtable
define available_externally noundef nonnull align 8 dereferenceable(8) ptr @_ZStlsISt11char_traitsIcEERSt13basic_ostreamIcT_ES5_PKc(ptr noundef nonnull align 8 dereferenceable(8) %0, ptr noundef %1) #8 {
  %3 = alloca ptr, align 8
  %4 = alloca ptr, align 8
  store ptr %0, ptr %3, align 8, !tbaa !89
  store ptr %1, ptr %4, align 8, !tbaa !16
  %5 = load ptr, ptr %4, align 8, !tbaa !16
  %6 = icmp ne ptr %5, null
  br i1 %6, label %13, label %7

7:                                                ; preds = %2
  %8 = load ptr, ptr %3, align 8, !tbaa !89
  %9 = load ptr, ptr %8, align 8, !tbaa !50
  %10 = getelementptr i8, ptr %9, i64 -24
  %11 = load i64, ptr %10, align 8
  %12 = getelementptr inbounds i8, ptr %8, i64 %11
  call void @_ZNSt9basic_iosIcSt11char_traitsIcEE8setstateESt12_Ios_Iostate(ptr noundef nonnull align 8 dereferenceable(264) %12, i32 noundef 1)
  br label %19

13:                                               ; preds = %2
  %14 = load ptr, ptr %3, align 8, !tbaa !89
  %15 = load ptr, ptr %4, align 8, !tbaa !16
  %16 = load ptr, ptr %4, align 8, !tbaa !16
  %17 = call noundef i64 @_ZNSt11char_traitsIcE6lengthEPKc(ptr noundef %16)
  %18 = call noundef nonnull align 8 dereferenceable(8) ptr @_ZSt16__ostream_insertIcSt11char_traitsIcEERSt13basic_ostreamIT_T0_ES6_PKS3_l(ptr noundef nonnull align 8 dereferenceable(8) %14, ptr noundef %15, i64 noundef %17)
  br label %19

19:                                               ; preds = %13, %7
  %20 = load ptr, ptr %3, align 8, !tbaa !89
  ret ptr %20
}

; Function Attrs: mustprogress nounwind uwtable
define linkonce_odr hidden noundef ptr @_ZNK2cv3PtrINS_9FormattedEEptEv(ptr noundef nonnull align 8 dereferenceable(16) %0) #4 comdat align 2 {
  %2 = alloca ptr, align 8
  store ptr %0, ptr %2, align 8, !tbaa !457
  %3 = load ptr, ptr %2, align 8
  %4 = call noundef ptr @_ZNKSt12__shared_ptrIN2cv9FormattedELN9__gnu_cxx12_Lock_policyE2EE3getEv(ptr noundef nonnull align 8 dereferenceable(16) %3) #3
  ret ptr %4
}

; Function Attrs: mustprogress nounwind uwtable
define linkonce_odr hidden noundef ptr @_ZNKSt12__shared_ptrIN2cv9FormatterELN9__gnu_cxx12_Lock_policyE2EE3getEv(ptr noundef nonnull align 8 dereferenceable(16) %0) #4 comdat align 2 {
  %2 = alloca ptr, align 8
  store ptr %0, ptr %2, align 8, !tbaa !464
  %3 = load ptr, ptr %2, align 8
  %4 = getelementptr inbounds nuw %"class.std::__shared_ptr.225", ptr %3, i32 0, i32 0
  %5 = load ptr, ptr %4, align 8, !tbaa !469
  ret ptr %5
}

; Function Attrs: inlinehint mustprogress uwtable
define internal noundef nonnull align 8 dereferenceable(8) ptr @_ZN2cvlsERSoNS_3PtrINS_9FormattedEEE(ptr noundef nonnull align 8 dereferenceable(8) %0, ptr noundef %1) #8 {
  %3 = alloca ptr, align 8
  %4 = alloca ptr, align 8
  %5 = alloca ptr, align 8
  store ptr %0, ptr %3, align 8, !tbaa !89
  store ptr %1, ptr %4, align 8, !tbaa !457
  %6 = call noundef ptr @_ZNK2cv3PtrINS_9FormattedEEptEv(ptr noundef nonnull align 8 dereferenceable(16) %1) #3
  %7 = load ptr, ptr %6, align 8, !tbaa !50
  %8 = getelementptr inbounds ptr, ptr %7, i64 1
  %9 = load ptr, ptr %8, align 8
  call void %9(ptr noundef nonnull align 8 dereferenceable(8) %6)
  call void @llvm.lifetime.start.p0(i64 8, ptr %5) #3
  %10 = call noundef ptr @_ZNK2cv3PtrINS_9FormattedEEptEv(ptr noundef nonnull align 8 dereferenceable(16) %1) #3
  %11 = load ptr, ptr %10, align 8, !tbaa !50
  %12 = getelementptr inbounds ptr, ptr %11, i64 0
  %13 = load ptr, ptr %12, align 8
  %14 = call noundef ptr %13(ptr noundef nonnull align 8 dereferenceable(8) %10)
  store ptr %14, ptr %5, align 8, !tbaa !16
  br label %15

15:                                               ; preds = %23, %2
  %16 = load ptr, ptr %5, align 8, !tbaa !16
  %17 = icmp ne ptr %16, null
  br i1 %17, label %19, label %18

18:                                               ; preds = %15
  call void @llvm.lifetime.end.p0(i64 8, ptr %5) #3
  br label %29

19:                                               ; preds = %15
  %20 = load ptr, ptr %3, align 8, !tbaa !89
  %21 = load ptr, ptr %5, align 8, !tbaa !16
  %22 = call noundef nonnull align 8 dereferenceable(8) ptr @_ZStlsISt11char_traitsIcEERSt13basic_ostreamIcT_ES5_PKc(ptr noundef nonnull align 8 dereferenceable(8) %20, ptr noundef %21)
  br label %23

23:                                               ; preds = %19
  %24 = call noundef ptr @_ZNK2cv3PtrINS_9FormattedEEptEv(ptr noundef nonnull align 8 dereferenceable(16) %1) #3
  %25 = load ptr, ptr %24, align 8, !tbaa !50
  %26 = getelementptr inbounds ptr, ptr %25, i64 0
  %27 = load ptr, ptr %26, align 8
  %28 = call noundef ptr %27(ptr noundef nonnull align 8 dereferenceable(8) %24)
  store ptr %28, ptr %5, align 8, !tbaa !16
  br label %15, !llvm.loop !459

29:                                               ; preds = %18
  %30 = load ptr, ptr %3, align 8, !tbaa !89
  ret ptr %30
}

; Function Attrs: mustprogress nounwind uwtable
define linkonce_odr hidden noundef ptr @_ZNK2cv3PtrINS_9FormatterEEptEv(ptr noundef nonnull align 8 dereferenceable(16) %0) #4 comdat align 2 {
  %2 = alloca ptr, align 8
  store ptr %0, ptr %2, align 8, !tbaa !460
  %3 = load ptr, ptr %2, align 8
  %4 = call noundef ptr @_ZNKSt12__shared_ptrIN2cv9FormatterELN9__gnu_cxx12_Lock_policyE2EE3getEv(ptr noundef nonnull align 8 dereferenceable(16) %3) #3
  ret ptr %4
}

; Function Attrs: inlinehint mustprogress uwtable
define internal noundef nonnull align 8 dereferenceable(8) ptr @_ZN2cvlsERSoRKNS_3MatE(ptr noundef nonnull align 8 dereferenceable(8) %0, ptr noundef nonnull align 8 dereferenceable(96) %1) #8 personality ptr @__gxx_personality_v0 {
  %3 = alloca ptr, align 8
  %4 = alloca ptr, align 8
  %5 = alloca %"struct.cv::Ptr.219", align 8
  %6 = alloca %"struct.cv::Ptr.223", align 8
  %7 = alloca ptr, align 8
  %8 = alloca i32, align 4
  store ptr %0, ptr %3, align 8, !tbaa !89
  store ptr %1, ptr %4, align 8, !tbaa !133
  %9 = load ptr, ptr %3, align 8, !tbaa !89
  call void @llvm.lifetime.start.p0(i64 16, ptr %6) #3
  call void @_ZN2cv9Formatter3getENS0_10FormatTypeE(ptr dead_on_unwind writable sret(%"struct.cv::Ptr.223") align 8 %6, i32 noundef 0)
  %10 = call noundef ptr @_ZNK2cv3PtrINS_9FormatterEEptEv(ptr noundef nonnull align 8 dereferenceable(16) %6) #3
  %11 = load ptr, ptr %4, align 8, !tbaa !133
  %12 = load ptr, ptr %10, align 8, !tbaa !50
  %13 = getelementptr inbounds ptr, ptr %12, i64 2
  %14 = load ptr, ptr %13, align 8
  invoke void %14(ptr dead_on_unwind writable sret(%"struct.cv::Ptr.219") align 8 %5, ptr noundef nonnull align 8 dereferenceable(8) %10, ptr noundef nonnull align 8 dereferenceable(96) %11)
          to label %15 unwind label %18

15:                                               ; preds = %2
  %16 = invoke noundef nonnull align 8 dereferenceable(8) ptr @_ZN2cvlsERSoNS_3PtrINS_9FormattedEEE(ptr noundef nonnull align 8 dereferenceable(8) %9, ptr noundef %5)
          to label %17 unwind label %22

17:                                               ; preds = %15
  call void @_ZNSt12__shared_ptrIN2cv9FormattedELN9__gnu_cxx12_Lock_policyE2EED2Ev(ptr noundef nonnull align 8 dereferenceable(16) %5) #3
  call void @_ZNSt12__shared_ptrIN2cv9FormatterELN9__gnu_cxx12_Lock_policyE2EED2Ev(ptr noundef nonnull align 8 dereferenceable(16) %6) #3
  call void @llvm.lifetime.end.p0(i64 16, ptr %6) #3
  ret ptr %16

18:                                               ; preds = %2
  %19 = landingpad { ptr, i32 }
          cleanup
  %20 = extractvalue { ptr, i32 } %19, 0
  store ptr %20, ptr %7, align 8
  %21 = extractvalue { ptr, i32 } %19, 1
  store i32 %21, ptr %8, align 4
  br label %26

22:                                               ; preds = %15
  %23 = landingpad { ptr, i32 }
          cleanup
  %24 = extractvalue { ptr, i32 } %23, 0
  store ptr %24, ptr %7, align 8
  %25 = extractvalue { ptr, i32 } %23, 1
  store i32 %25, ptr %8, align 4
  call void @_ZNSt12__shared_ptrIN2cv9FormattedELN9__gnu_cxx12_Lock_policyE2EED2Ev(ptr noundef nonnull align 8 dereferenceable(16) %5) #3
  br label %26

26:                                               ; preds = %22, %18
  call void @_ZNSt12__shared_ptrIN2cv9FormatterELN9__gnu_cxx12_Lock_policyE2EED2Ev(ptr noundef nonnull align 8 dereferenceable(16) %6) #3
  call void @llvm.lifetime.end.p0(i64 16, ptr %6) #3
  br label %27

27:                                               ; preds = %26
  %28 = load ptr, ptr %7, align 8
  %29 = load i32, ptr %8, align 4
  %30 = insertvalue { ptr, i32 } poison, ptr %28, 0
  %31 = insertvalue { ptr, i32 } %30, i32 %29, 1
  resume { ptr, i32 } %31
}